(lp0
(dp1
S'url'
p2
S'http://redmonk.com/sogrady/2012/09/24/data-moat/'
p3
sS'contributor'
p4
NsS'verb'
p5
S'read'
p6
sS'contributor_url'
p7
NsS'title'
p8
S'Build a Data Moat Around Your Business'
p9
sa.