(lp0
(dp1
S'url'
p2
S'http://www.salon.com/2012/03/14/bring_back_the_40_hour_work_week/'
p3
sS'contributor'
p4
NsS'verb'
p5
S'read'
p6
sS'contributor_url'
p7
NsS'title'
p8
S'Bring back the 40-hour work week'
p9
sa.